; Function Attrs: mustprogress uwtable
define hidden void @_ZN4lean13mk_llnf_unboxEj(ptr dead_on_unwind noalias writable sret(%"class.lean::expr") align 8 %0, i32 noundef %1) local_unnamed_addr #0 personality ptr @__gxx_personality_v0 {
  %3 = alloca %"class.lean::list_ref.61", align 8
  %4 = alloca %"class.lean::name", align 8
  call void @llvm.lifetime.start.p0(i64 8, ptr nonnull %4) #19
  %5 = load ptr, ptr @_ZN4leanL7g_unboxE, align 8, !tbaa !19
  call void @_ZN4lean4nameC1ERKS0_j(ptr noundef nonnull align 8 dereferenceable(8) %4, ptr noundef nonnull align 8 dereferenceable(8) %5, i32 noundef %1)
  call void @llvm.lifetime.start.p0(i64 8, ptr nonnull %3) #19, !noalias !56
  store ptr inttoptr (i64 1 to ptr), ptr %3, align 8, !tbaa !8, !noalias !56
  invoke void @_ZN4lean8mk_constERKNS_4nameERKNS_8list_refINS_5levelEEE(ptr dead_on_unwind writable sret(%"class.lean::expr") align 8 %0, ptr noundef nonnull align 8 dereferenceable(8) %4, ptr noundef nonnull align 8 dereferenceable(8) %3)
          to label %_ZN4lean11mk_constantERKNS_4nameERKNS_8list_refINS_5levelEEE.exit.i unwind label %.body

_ZN4lean11mk_constantERKNS_4nameERKNS_8list_refINS_5levelEEE.exit.i: ; preds = %2
  %6 = load ptr, ptr %3, align 8, !tbaa !8, !noalias !56
  %7 = ptrtoint ptr %6 to i64
  %8 = and i64 %7, 1
  %.not.i.i.i = icmp eq i64 %8, 0
  br i1 %.not.i.i.i, label %9, label %20

9:                                                ; preds = %_ZN4lean11mk_constantERKNS_4nameERKNS_8list_refINS_5levelEEE.exit.i
  %10 = load i32, ptr %6, align 4, !tbaa !10
  %11 = icmp sgt i32 %10, 1
  br i1 %11, label %12, label %14, !prof !13

12:                                               ; preds = %9
  %13 = add nsw i32 %10, -1
  store i32 %13, ptr %6, align 4, !tbaa !10
  br label %20

14:                                               ; preds = %9
  %.not.i.i.i.i = icmp eq i32 %10, 0
  br i1 %.not.i.i.i.i, label %20, label %15

15:                                               ; preds = %14
  invoke void @lean_dec_ref_cold(ptr noundef nonnull %6)
          to label %20 unwind label %16

16:                                               ; preds = %15
  %17 = landingpad { ptr, i32 }
          catch ptr null
  %18 = extractvalue { ptr, i32 } %17, 0
  call void @__clang_call_terminate(ptr %18) #20
  unreachable

.body:                                            ; preds = %2
  %19 = landingpad { ptr, i32 }
          cleanup
  call void @_ZN4lean10object_refD2Ev(ptr noundef nonnull align 8 dereferenceable(8) %3) #19
  call void @llvm.lifetime.end.p0(i64 8, ptr nonnull %3) #19, !noalias !56
  call void @_ZN4lean10object_refD2Ev(ptr noundef nonnull align 8 dereferenceable(8) %4) #19
  call void @llvm.lifetime.end.p0(i64 8, ptr nonnull %4) #19
  resume { ptr, i32 } %19

20:                                               ; preds = %15, %14, %12, %_ZN4lean11mk_constantERKNS_4nameERKNS_8list_refINS_5levelEEE.exit.i
  call void @llvm.lifetime.end.p0(i64 8, ptr nonnull %3) #19, !noalias !56
  %21 = load ptr, ptr %4, align 8, !tbaa !8
  %22 = ptrtoint ptr %21 to i64
  %23 = and i64 %22, 1
  %.not.i.i = icmp eq i64 %23, 0
  br i1 %.not.i.i, label %24, label %_ZN4lean10object_refD2Ev.exit

24:                                               ; preds = %20
  %25 = load i32, ptr %21, align 4, !tbaa !10
  %26 = icmp sgt i32 %25, 1
  br i1 %26, label %27, label %29, !prof !13

27:                                               ; preds = %24
  %28 = add nsw i32 %25, -1
  store i32 %28, ptr %21, align 4, !tbaa !10
  br label %_ZN4lean10object_refD2Ev.exit

29:                                               ; preds = %24
  %.not.i.i.i2 = icmp eq i32 %25, 0
  br i1 %.not.i.i.i2, label %_ZN4lean10object_refD2Ev.exit, label %30

30:                                               ; preds = %29
  invoke void @lean_dec_ref_cold(ptr noundef nonnull %21)
          to label %_ZN4lean10object_refD2Ev.exit unwind label %31

31:                                               ; preds = %30
  %32 = landingpad { ptr, i32 }
          catch ptr null
  %33 = extractvalue { ptr, i32 } %32, 0
  call void @__clang_call_terminate(ptr %33) #20
  unreachable

_ZN4lean10object_refD2Ev.exit:                    ; preds = %20, %27, %29, %30
  call void @llvm.lifetime.end.p0(i64 8, ptr nonnull %4) #19
  ret void
}